((lp1
(dp2
S'bin'
p3
(I01
I61700
tp4
sS'cur_base'
p5
I0
sS'hex'
p6
(I01
I61700
tp7
sS'cur_step'
p8
I0
sS'dec'
p9
(I01
I61700
tp10
sS'cur_field_name'
p11
S'r4'
p12
sa(dp13
g3
(I01
I0
tp14
sg5
I0
sg6
(I01
I0
tp15
sg8
I0
sg9
(I01
I0
tp16
sg11
S'instr_addr'
p17
sa(dp18
g3
(I00
I0
tp19
sg5
I0
sg6
(I00
I0
tp20
sg8
I0
sg9
(I00
I0
tp21
sg11
g17
sa(dp22
g3
(I01
I0
tp23
sg5
I0
sg6
(I01
I0
tp24
sg8
I0
sg9
(I01
I0
tp25
sg11
g17
sa(dp26
g3
(I00
I14199
tp27
sg5
I0
sg6
(I00
I61700
tp28
sg8
I0
sg9
(I00
I61700
tp29
sg11
g12
sa(dp30
g3
(I01
I0
tp31
sg5
I0
sg6
(I01
I0
tp32
sg8
I0
sg9
(I01
I0
tp33
sg11
g17
sa(dp34
g3
(I00
I118
tp35
sg5
I0
sg6
(I00
I0
tp36
sg8
I0
sg9
(I00
I0
tp37
sg11
g17
sa(dp38
g3
(I01
I0
tp39
sg5
I0
sg6
(I01
I0
tp40
sg8
I0
sg9
(I01
I0
tp41
sg11
S'instr'
p42
sa(dp43
g3
(I00
I254
tp44
sg5
I0
sg6
(I00
I0
tp45
sg8
I0
sg9
(I00
I0
tp46
sg11
g42
sa(dp47
g3
(I01
I0
tp48
sg5
I0
sg6
(I01
I0
tp49
sg8
I0
sg9
(I01
I0
tp50
sg11
g42
sa(dp51
g3
(I01
I118
tp52
sg5
I0
sg6
(I01
I118
tp53
sg8
I0
sg9
(I01
I118
tp54
sg11
S'r7'
p55
sa(dp56
g3
(I00
I0
tp57
sg5
I0
sg6
(I00
I118
tp58
sg8
I0
sg9
(I00
I118
tp59
sg11
g55
sa(dp60
g3
(I01
I118
tp61
sg5
I0
sg6
(I01
I118
tp62
sg8
I0
sg9
(I01
I118
tp63
sg11
g55
sa(dp64
g3
(I01
I119
tp65
sg5
I0
sg6
(I01
I118
tp66
sg8
I1
sg9
(I01
I118
tp67
sg11
g55
sa(dp68
g3
(I01
I118
tp69
sg5
I0
sg6
(I01
I0
tp70
sg8
I1
sg9
(I01
I0
tp71
sg11
g17
sa(dp72
g3
(I00
I1
tp73
sg5
I0
sg6
(I00
I0
tp74
sg8
I1
sg9
(I00
I0
tp75
sg11
g17
sa(dp76
g3
(I01
I118
tp77
sg5
I0
sg6
(I01
I0
tp78
sg8
I1
sg9
(I01
I0
tp79
sg11
g17
sa(dp80
g3
(I00
I119
tp81
sg5
I0
sg6
(I00
I118
tp82
sg8
I1
sg9
(I00
I118
tp83
sg11
g55
sa(dp84
g3
(I00
I119
tp85
sg5
I1
sg6
(I00
I118
tp86
sg8
I0
sg9
(I00
I118
tp87
sg11
g55
sa(dp88
g3
(I00
I119
tp89
sg5
I2
sg6
(I00
I118
tp90
sg8
I0
sg9
(I00
I119
tp91
sg11
g55
sa(dp92
g3
(I00
I118
tp93
sg5
I1
sg6
(I00
I0
tp94
sg8
I0
sg9
(I00
I0
tp95
sg11
g17
sa(dp96
g3
(I00
I118
tp97
sg5
I2
sg6
(I00
I0
tp98
sg8
I0
sg9
(I00
I118
tp99
sg11
g17
sa(dp100
g3
(I00
I65029
tp101
sg5
I2
sg6
(I00
I0
tp102
sg8
I0
sg9
(I00
I0
tp103
sg11
g42
sa(dp104
g3
(I00
I120
tp105
sg5
I2
sg6
(I00
I118
tp106
sg8
I1
sg9
(I00
I118
tp107
sg11
g55
sa(dp108
g3
(I00
I120
tp109
sg5
I1
sg6
(I00
I120
tp110
sg8
I1
sg9
(I00
I118
tp111
sg11
g55
sa(dp112
g3
(I00
I119
tp113
sg5
I2
sg6
(I00
I0
tp114
sg8
I1
sg9
(I00
I0
tp115
sg11
g17
sa(dp116
g3
(I00
I119
tp117
sg5
I1
sg6
(I00
I119
tp118
sg8
I1
sg9
(I00
I0
tp119
sg11
g17
sa(dp120
g3
(I01
I65029
tp121
sg5
I0
sg6
(I01
I65029
tp122
sg8
I1
sg9
(I01
I65029
tp123
sg11
g42
sa(dp124
g3
(I00
I44260
tp125
sg5
I2
sg6
(I00
I65029
tp126
sg8
I1
sg9
(I00
I65029
tp127
sg11
g42
sa(dp128
g3
(I01
I61700
tp129
sg5
I0
sg6
(I01
I61700
tp130
sg8
I1
sg9
(I01
I61700
tp131
sg11
g12
sa(dp132
g3
(I00
I14199
tp133
sg5
I2
sg6
(I00
I61700
tp134
sg8
I1
sg9
(I00
I61700
tp135
sg11
g12
sa(dp136
g3
(I00
I14199
tp137
sg5
I1
sg6
(I00
I14199
tp138
sg8
I1
sg9
(I00
I61700
tp139
sg11
g12
sa(dp140
g3
(I01
I119
tp141
sg5
I1
sg6
(I01
I119
tp142
sg8
I2
sg9
(I01
I119
tp143
sg11
g17
sa(dp144
g3
(I00
I119
tp145
sg5
I2
sg6
(I00
I119
tp146
sg8
I2
sg9
(I00
I120
tp147
sg11
g17
sa(dp148
g3
(I01
I120
tp149
sg5
I2
sg6
(I01
I120
tp150
sg8
I2
sg9
(I01
I120
tp151
sg11
g55
sa(dp152
g3
(I00
I120
tp153
sg5
I1
sg6
(I00
I121
tp154
sg8
I2
sg9
(I00
I120
tp155
sg11
g55
sa(dp156
g3
(I00
I119
tp157
sg5
I0
sg6
(I00
I120
tp158
sg8
I2
sg9
(I00
I120
tp159
sg11
g17
sa(dp160
g3
(I00
I120
tp161
sg5
I0
sg6
(I00
I121
tp162
sg8
I2
sg9
(I00
I121
tp163
sg11
g55
sa(dp164
g3
(I01
I44260
tp165
sg5
I0
sg6
(I01
I44260
tp166
sg8
I2
sg9
(I01
I44260
tp167
sg11
g42
sa(dp168
g3
(I00
I47440
tp169
sg5
I2
sg6
(I00
I44260
tp170
sg8
I2
sg9
(I00
I44260
tp171
sg11
g42
sa(dp172
g3
(I01
I14103
tp173
sg5
I0
sg6
(I01
I14103
tp174
sg8
I2
sg9
(I01
I14103
tp175
sg11
S'r1'
p176
sa(dp177
g3
(I00
I65526
tp178
sg5
I2
sg6
(I00
I14103
tp179
sg8
I2
sg9
(I00
I14103
tp180
sg11
g176
sa(dp181
S'bin'
p182
(I01
I0
tp183
sS'cur_base'
p184
I1
sS'hex'
p185
(I01
I0
tp186
sS'cur_step'
p187
I0
sS'dec'
p188
(I01
I0
tp189
sS'cur_field_name'
p190
S'instr_addr'
p191
sa(dp192
g182
(I00
I0
tp193
sg184
I2
sg185
(I00
I0
tp194
sg187
I0
sg188
(I00
I118
tp195
sg190
g191
sa(dp196
g182
(I00
I0
tp197
sg184
I0
sg185
(I00
I118
tp198
sg187
I0
sg188
(I00
I118
tp199
sg190
g191
sa(dp200
g182
(I00
I0
tp201
sg184
I0
sg185
(I00
I118
tp202
sg187
I0
sg188
(I00
I118
tp203
sg190
g191
sa(dp204
g182
(I01
I118
tp205
sg184
I0
sg185
(I01
I118
tp206
sg187
I0
sg188
(I01
I118
tp207
sg190
S'r7'
p208
sa(dp209
g182
(I00
I119
tp210
sg184
I1
sg185
(I00
I118
tp211
sg187
I0
sg188
(I00
I118
tp212
sg190
g208
sa(dp213
g182
(I00
I119
tp214
sg184
I2
sg185
(I00
I118
tp215
sg187
I0
sg188
(I00
I119
tp216
sg190
g208
sa(dp217
g182
(I01
I0
tp218
sg184
I0
sg185
(I01
I0
tp219
sg187
I0
sg188
(I01
I0
tp220
sg190
S'instr'
p221
sa(dp222
g182
(I00
I65148
tp223
sg184
I2
sg185
(I00
I0
tp224
sg187
I0
sg188
(I00
I0
tp225
sg190
g221
sa(dp226
g182
(I01
I118
tp227
sg184
I2
sg185
(I01
I118
tp228
sg187
I1
sg188
(I01
I118
tp229
sg190
g191
sa(dp230
g182
(I00
I118
tp231
sg184
I1
sg185
(I00
I119
tp232
sg187
I1
sg188
(I00
I118
tp233
sg190
g191
sa(dp234
g182
(I00
I118
tp235
sg184
I0
sg185
(I00
I119
tp236
sg187
I1
sg188
(I00
I119
tp237
sg190
g191
sa(dp238
g182
(I01
I119
tp239
sg184
I1
sg185
(I01
I119
tp240
sg187
I1
sg188
(I01
I119
tp241
sg190
g208
sa(dp242
g182
(I00
I119
tp243
sg184
I2
sg185
(I00
I119
tp244
sg187
I1
sg188
(I00
I120
tp245
sg190
g208
sa(dp246
g182
(I00
I119
tp247
sg184
I0
sg185
(I00
I120
tp248
sg187
I1
sg188
(I00
I120
tp249
sg190
g208
sa(dp250
g182
(I00
I30
tp251
sg184
I0
sg185
(I00
I120
tp252
sg187
I1
sg188
(I00
I120
tp253
sg190
g208
sa(dp254
g182
(I00
I30
tp255
sg184
I0
sg185
(I00
I120
tp256
sg187
I1
sg188
(I00
I120
tp257
sg190
g208
sa(dp258
g182
(I01
I65148
tp259
sg184
I0
sg185
(I01
I65148
tp260
sg187
I1
sg188
(I01
I65148
tp261
sg190
g221
sa(dp262
g182
(I00
I44260
tp263
sg184
I2
sg185
(I00
I65148
tp264
sg187
I1
sg188
(I00
I65148
tp265
sg190
g221
sa(dp266
g182
(I01
I61700
tp267
sg184
I0
sg185
(I01
I61700
tp268
sg187
I1
sg188
(I01
I61700
tp269
sg190
S'r4'
p270
sa(dp271
g182
(I00
I14207
tp272
sg184
I2
sg185
(I00
I61700
tp273
sg187
I1
sg188
(I00
I61700
tp274
sg190
g270
sa(dp275
g182
(I00
I14207
tp276
sg184
I1
sg185
(I00
I14207
tp277
sg187
I1
sg188
(I00
I61700
tp278
sg190
g270
sa(dp279
g182
(I01
I119
tp280
sg184
I1
sg185
(I01
I119
tp281
sg187
I2
sg188
(I01
I119
tp282
sg190
g191
sa(dp283
g182
(I00
I119
tp284
sg184
I2
sg185
(I00
I119
tp285
sg187
I2
sg188
(I00
I120
tp286
sg190
g191
sa(dp287
g182
(I00
I119
tp288
sg184
I0
sg185
(I00
I120
tp289
sg187
I2
sg188
(I00
I120
tp290
sg190
g191
sa(dp291
g182
(I01
I120
tp292
sg184
I0
sg185
(I01
I120
tp293
sg187
I2
sg188
(I01
I120
tp294
sg190
g208
sa(dp295
g182
(I00
I121
tp296
sg184
I1
sg185
(I00
I120
tp297
sg187
I2
sg188
(I00
I120
tp298
sg190
g208
sa(dp299
g182
(I00
I121
tp300
sg184
I2
sg185
(I00
I120
tp301
sg187
I2
sg188
(I00
I121
tp302
sg190
g208
sa(dp303
g182
(I00
I121
tp304
sg184
I2
sg185
(I00
I121
tp305
sg187
I2
sg188
(I00
I121
tp306
sg190
g208
sa(dp307
g182
(I01
I24550
tp308
sg184
I2
sg185
(I01
I24550
tp309
sg187
I2
sg188
(I01
I24550
tp310
sg190
S'r2'
p311
sa(dp312
g182
(I00
I24550
tp313
sg184
I2
sg185
(I00
I24550
tp314
sg187
I2
sg188
(I00
I24550
tp315
sg190
g311
sa(dp316
g182
(I01
I14103
tp317
sg184
I2
sg185
(I01
I14103
tp318
sg187
I2
sg188
(I01
I14103
tp319
sg190
S'r1'
p320
sa(dp321
g182
(I00
I14103
tp322
sg184
I1
sg185
(I00
I65526
tp323
sg187
I2
sg188
(I00
I14103
tp324
sg190
g320
sa(dp325
g182
(I00
I14103
tp326
sg184
I0
sg185
(I00
I65526
tp327
sg187
I2
sg188
(I00
I14103
tp328
sg190
g320
sa(dp329
g182
(I00
I65526
tp330
sg184
I1
sg185
(I00
I65526
tp331
sg187
I2
sg188
(I00
I14103
tp332
sg190
g320
sa(dp333
g182
(I01
I44260
tp334
sg184
I2
sg185
(I01
I44260
tp335
sg187
I2
sg188
(I01
I44260
tp336
sg190
g221
sa(dp337
g182
(I00
I44260
tp338
sg184
I0
sg185
(I00
I47440
tp339
sg187
I2
sg188
(I00
I47440
tp340
sg190
g221
sa(dp341
g182
(I01
I120
tp342
sg184
I0
sg185
(I01
I120
tp343
sg187
I3
sg188
(I01
I120
tp344
sg190
g191
sa(dp345
g182
(I00
I121
tp346
sg184
I1
sg185
(I00
I120
tp347
sg187
I3
sg188
(I00
I120
tp348
sg190
g191
sa(dp349
g182
(I00
I121
tp350
sg184
I2
sg185
(I00
I120
tp351
sg187
I3
sg188
(I00
I121
tp352
sg190
g191
sa(dp353
g182
(I00
I121
tp354
sg184
I2
sg185
(I00
I9
tp355
sg187
I3
sg188
(I00
I121
tp356
sg190
g191
sa(dp357
g182
(I01
I121
tp358
sg184
I2
sg185
(I01
I121
tp359
sg187
I3
sg188
(I01
I121
tp360
sg190
g208
sa(dp361
g182
(I00
I121
tp362
sg184
I1
sg185
(I00
I122
tp363
sg187
I3
sg188
(I00
I121
tp364
sg190
g208
sa(dp365
g182
(I00
I121
tp366
sg184
I0
sg185
(I00
I122
tp367
sg187
I3
sg188
(I00
I122
tp368
sg190
g208
sa(dp369
g182
(I01
I47440
tp370
sg184
I0
sg185
(I01
I47440
tp371
sg187
I3
sg188
(I01
I47440
tp372
sg190
g221
sa(dp373
g182
(I00
I9544
tp374
sg184
I2
sg185
(I00
I47440
tp375
sg187
I3
sg188
(I00
I47440
tp376
sg190
g221
sa(dp377
g182
(I01
I59628
tp378
sg184
I1
sg185
(I01
I59628
tp379
sg187
I3
sg188
(I01
I59628
tp380
sg190
S'r5'
p381
sa(dp382
g182
(I00
I59628
tp383
sg184
I2
sg185
(I00
I59628
tp384
sg187
I3
sg188
(I00
I49100
tp385
sg190
g381
sa(dp386
g182
(I00
I59628
tp387
sg184
I0
sg185
(I00
I49100
tp388
sg187
I3
sg188
(I00
I49100
tp389
sg190
g381
sa(dp390
g182
(I01
I121
tp391
sg184
I0
sg185
(I01
I121
tp392
sg187
I4
sg188
(I01
I121
tp393
sg190
g191
sa(dp394
g182
(I00
I122
tp395
sg184
I2
sg185
(I00
I121
tp396
sg187
I4
sg188
(I00
I121
tp397
sg190
g191
sa(dp398
g182
(I00
I122
tp399
sg184
I1
sg185
(I00
I122
tp400
sg187
I4
sg188
(I00
I121
tp401
sg190
g191
sa(dp402
g182
(I01
I122
tp403
sg184
I1
sg185
(I01
I122
tp404
sg187
I4
sg188
(I01
I122
tp405
sg190
g208
sa(dp406
g182
(I00
I122
tp407
sg184
I2
sg185
(I00
I122
tp408
sg187
I4
sg188
(I00
I123
tp409
sg190
g208
sa(dp410
g182
(I00
I122
tp411
sg184
I0
sg185
(I00
I123
tp412
sg187
I4
sg188
(I00
I123
tp413
sg190
g208
sa(dp414
g182
(I01
I9
tp415
sg184
I0
sg185
(I01
I9
tp416
sg187
I4
sg188
(I01
I9
tp417
sg190
S'cc'
p418
sa(dp419
g182
(I00
I13
tp420
sg184
I2
sg185
(I00
I9
tp421
sg187
I4
sg188
(I00
I9
tp422
sg190
g418
sa(dp423
g182
(I01
I49134
tp424
sg184
I2
sg185
(I01
I49100
tp425
sg187
I4
sg188
(I01
I49100
tp426
sg190
g381
sa(dp427
g182
(I00
I49134
tp428
sg184
I1
sg185
(I00
I0
tp429
sg187
I4
sg188
(I00
I49100
tp430
sg190
g381
sa(dp431
g182
(I00
I49134
tp432
sg184
I0
sg185
(I00
I0
tp433
sg187
I4
sg188
(I00
I0
tp434
sg190
g381
sa(dp435
g182
(I01
I9544
tp436
sg184
I2
sg185
(I01
I9544
tp437
sg187
I4
sg188
(I01
I9544
tp438
sg190
g221
sa(dp439
g182
(I00
I9544
tp440
sg184
I0
sg185
(I00
I9544
tp441
sg187
I4
sg188
(I00
I9544
tp442
sg190
g221
sa(dp443
g182
(I00
I0
tp444
sg184
I0
sg185
(I00
I9544
tp445
sg187
I4
sg188
(I00
I9544
tp446
sg190
g221
sa(dp447
g182
(I00
I13
tp448
sg184
I0
sg185
(I00
I13
tp449
sg187
I4
sg188
(I00
I13
tp450
sg190
g418
sa(dp451
g182
(I00
I9
tp452
sg184
I2
sg185
(I00
I13
tp453
sg187
I4
sg188
(I00
I13
tp454
sg190
g418
sa(dp455
g182
(I00
I9
tp456
sg184
I2
sg185
(I00
I9
tp457
sg187
I4
sg188
(I00
I9
tp458
sg190
g418
sa(dp459
g182
(I01
I9544
tp460
sg184
I0
sg185
(I01
I9544
tp461
sg187
I4
sg188
(I01
I9544
tp462
sg190
g221
sa(dp463
g182
(I00
I17808
tp464
sg184
I2
sg185
(I00
I9544
tp465
sg187
I4
sg188
(I00
I9544
tp466
sg190
g221
sa(dp467
g182
(I01
I122
tp468
sg184
I1
sg185
(I01
I122
tp469
sg187
I5
sg188
(I01
I122
tp470
sg190
g191
sa(dp471
g182
(I00
I122
tp472
sg184
I2
sg185
(I00
I122
tp473
sg187
I5
sg188
(I00
I123
tp474
sg190
g191
sa(dp475
g182
(I01
I123
tp476
sg184
I1
sg185
(I01
I123
tp477
sg187
I5
sg188
(I01
I123
tp478
sg190
g208
sa(dp479
g182
(I00
I123
tp480
sg184
I2
sg185
(I00
I123
tp481
sg187
I5
sg188
(I00
I124
tp482
sg190
g208
sa(dp483
g182
(I00
I123
tp484
sg184
I0
sg185
(I00
I124
tp485
sg187
I5
sg188
(I00
I124
tp486
sg190
g208
sa(dp487
g182
(I01
I17808
tp488
sg184
I0
sg185
(I01
I17808
tp489
sg187
I5
sg188
(I01
I17808
tp490
sg190
g221
sa(dp491
g182
(I00
I64256
tp492
sg184
I2
sg185
(I00
I17808
tp493
sg187
I5
sg188
(I00
I17808
tp494
sg190
g221
sa(dp495
g182
(I00
I65148
tp496
sg184
I2
sg185
(I00
I65148
tp497
sg187
I0
sg188
(I00
I65148
tp498
sg190
g221
sa(dp499
g182
(I00
I65148
tp500
sg184
I0
sg185
(I00
I65148
tp501
sg187
I0
sg188
(I00
I65148
tp502
sg190
g221
sa(dp503
g182
(I00
I65029
tp504
sg184
I2
sg185
(I00
I65148
tp505
sg187
I0
sg188
(I00
I65148
tp506
sg190
g221
sa(dp507
S'bin'
p508
(I01
I122
tp509
sS'cur_base'
p510
I1
sS'hex'
p511
(I01
I123
tp512
sS'cur_step'
p513
I6
sS'dec'
p514
(I01
I123
tp515
sS'cur_field_name'
p516
S'instr_addr'
p517
sa(dp518
g508
(I00
I122
tp519
sg510
I2
sg511
(I00
I123
tp520
sg513
I6
sg514
(I00
I124
tp521
sg516
g517
sa(dp522
g508
(I00
I122
tp523
sg510
I0
sg511
(I00
I123
tp524
sg513
I5
sg514
(I00
I123
tp525
sg516
g517
sa(dp526
g508
(I00
I122
tp527
sg510
I0
sg511
(I00
I124
tp528
sg513
I6
sg514
(I00
I124
tp529
sg516
g517
sa(dp530
g508
(I01
I124
tp531
sg510
I1
sg511
(I01
I124
tp532
sg513
I6
sg514
(I01
I124
tp533
sg516
S'r7'
p534
sa(dp535
g508
(I00
I124
tp536
sg510
I2
sg511
(I00
I124
tp537
sg513
I6
sg514
(I00
I125
tp538
sg516
g534
sa(dp539
g508
(I00
I124
tp540
sg510
I0
sg511
(I00
I125
tp541
sg513
I6
sg514
(I00
I125
tp542
sg516
g534
sa(dp543
g508
(I01
I64256
tp544
sg510
I0
sg511
(I01
I64256
tp545
sg513
I6
sg514
(I01
I64256
tp546
sg516
S'instr'
p547
sa(dp548
g508
(I00
I31647
tp549
sg510
I2
sg511
(I00
I64256
tp550
sg513
I6
sg514
(I00
I64256
tp551
sg516
g547
sa(dp552
g508
(I01
I14207
tp553
sg510
I1
sg511
(I01
I14207
tp554
sg513
I6
sg514
(I01
I14207
tp555
sg516
S'r4'
p556
sa(dp557
g508
(I00
I14207
tp558
sg510
I2
sg511
(I00
I14207
tp559
sg513
I6
sg514
(I00
I14208
tp560
sg516
g556
sa(dp561
g508
(I00
I14207
tp562
sg510
I0
sg511
(I00
I14208
tp563
sg513
I6
sg514
(I00
I14208
tp564
sg516
g556
sa(dp565
g508
(I00
I14208
tp566
sg510
I0
sg511
(I00
I14208
tp567
sg513
I6
sg514
(I00
I14208
tp568
sg516
g556
sa(dp569
g508
(I01
I35619
tp570
sg510
I1
sg511
(I01
I35619
tp571
sg513
I6
sg514
(I01
I35619
tp572
sg516
S'r3'
p573
sa(dp574
g508
(I00
I35619
tp575
sg510
I2
sg511
(I00
I35619
tp576
sg513
I6
sg514
(I00
I14208
tp577
sg516
g573
sa(dp578
g508
(I00
I35619
tp579
sg510
I0
sg511
(I00
I14208
tp580
sg513
I6
sg514
(I00
I14208
tp581
sg516
g573
sa(dp582
g508
(I01
I124
tp583
sg510
I1
sg511
(I01
I124
tp584
sg513
I7
sg514
(I01
I124
tp585
sg516
g517
sa(dp586
g508
(I00
I124
tp587
sg510
I2
sg511
(I00
I124
tp588
sg513
I7
sg514
(I00
I125
tp589
sg516
g517
sa(dp590
g508
(I00
I124
tp591
sg510
I0
sg511
(I00
I125
tp592
sg513
I7
sg514
(I00
I125
tp593
sg516
g517
sa(dp594
g508
(I01
I125
tp595
sg510
I1
sg511
(I01
I125
tp596
sg513
I7
sg514
(I01
I125
tp597
sg516
g534
sa(dp598
g508
(I00
I125
tp599
sg510
I2
sg511
(I00
I125
tp600
sg513
I7
sg514
(I00
I126
tp601
sg516
g534
sa(dp602
g508
(I00
I125
tp603
sg510
I0
sg511
(I00
I126
tp604
sg513
I7
sg514
(I00
I126
tp605
sg516
g534
sa(dp606
g508
(I01
I31647
tp607
sg510
I0
sg511
(I01
I31647
tp608
sg513
I7
sg514
(I01
I31647
tp609
sg516
g547
sa(dp610
g508
(I00
I55796
tp611
sg510
I2
sg511
(I00
I31647
tp612
sg513
I7
sg514
(I00
I31647
tp613
sg516
g547
sa(dp614
g508
(I01
Ntp615
sg510
I0
sg511
(I01
Ntp616
sg513
I7
sg514
(I01
Ntp617
sg516
S'mem_addr'
p618
sa(dp619
g508
(I00
I0
tp620
sg510
I1
sg511
(I00
I0
tp621
sg513
I7
sg514
(I00
I0
tp622
sg516
g618
sa(dp623
g508
(I00
I0
tp624
sg510
I2
sg511
(I00
I0
tp625
sg513
I7
sg514
(I00
I114
tp626
sg516
g618
sa(dp627
g508
(I00
I0
tp628
sg510
I0
sg511
(I00
I114
tp629
sg513
I7
sg514
(I00
I114
tp630
sg516
g618
sa(dp631
g508
(I01
Ntp632
sg510
I0
sg511
(I01
Ntp633
sg513
I7
sg514
(I01
Ntp634
sg516
S'data_out'
p635
sa(dp636
g508
(I00
I0
tp637
sg510
I0
sg511
(I00
I0
tp638
sg513
I7
sg514
(I00
I0
tp639
sg516
g635
sa(dp640
g508
(I00
I65526
tp641
sg510
I1
sg511
(I00
I0
tp642
sg513
I7
sg514
(I00
I0
tp643
sg516
g635
sa(dp644
g508
(I00
I65526
tp645
sg510
I2
sg511
(I00
I0
tp646
sg513
I7
sg514
(I00
I65526
tp647
sg516
g635
sa(dp648
g508
(I01
I125
tp649
sg510
I1
sg511
(I01
I125
tp650
sg513
I8
sg514
(I01
I125
tp651
sg516
g517
sa(dp652
g508
(I00
I125
tp653
sg510
I2
sg511
(I00
I125
tp654
sg513
I8
sg514
(I00
I126
tp655
sg516
g517
sa(dp656
g508
(I01
I55796
tp657
sg510
I0
sg511
(I01
I55796
tp658
sg513
I8
sg514
(I01
I55796
tp659
sg516
g547
sa(dp660
g508
(I00
I57306
tp661
sg510
I2
sg511
(I00
I55796
tp662
sg513
I8
sg514
(I00
I55796
tp663
sg516
g547
sa(dp664
g508
(I01
I126
tp665
sg510
I2
sg511
(I01
I126
tp666
sg513
I8
sg514
(I01
I126
tp667
sg516
g534
sa(dp668
g508
(I00
I126
tp669
sg510
I1
sg511
(I00
I127
tp670
sg513
I8
sg514
(I00
I126
tp671
sg516
g534
sa(dp672
g508
(I00
I126
tp673
sg510
I0
sg511
(I00
I127
tp674
sg513
I8
sg514
(I00
I127
tp675
sg516
g534
sa(dp676
g508
(I01
I65526
tp677
sg510
I0
sg511
(I01
I65526
tp678
sg513
I8
sg514
(I01
I65526
tp679
sg516
g635
sa(dp680
g508
(I00
I127
tp681
sg510
I1
sg511
(I00
I65526
tp682
sg513
I8
sg514
(I00
I65526
tp683
sg516
g635
sa(dp684
g508
(I00
I127
tp685
sg510
I2
sg511
(I00
I65526
tp686
sg513
I8
sg514
(I00
I127
tp687
sg516
g635
sa(dp688
g508
(I01
I114
tp689
sg510
I1
sg511
(I01
I114
tp690
sg513
I8
sg514
(I01
I114
tp691
sg516
g618
sa(dp692
g508
(I00
I114
tp693
sg510
I2
sg511
(I00
I114
tp694
sg513
I8
sg514
(I00
I585
tp695
sg516
g618
sa(dp696
g508
(I00
I114
tp697
sg510
I0
sg511
(I00
I585
tp698
sg513
I8
sg514
(I00
I585
tp699
sg516
g618
sa(dp700
g508
(I01
I125
tp701
sg510
I1
sg511
(I01
I126
tp702
sg513
I9
sg514
(I01
I126
tp703
sg516
g517
sa(dp704
g508
(I00
I125
tp705
sg510
I2
sg511
(I00
I126
tp706
sg513
I9
sg514
(I00
I127
tp707
sg516
g517
sa(dp708
g508
(I00
I125
tp709
sg510
I0
sg511
(I00
I127
tp710
sg513
I9
sg514
(I00
I127
tp711
sg516
g517
sa(dp712
g508
(I00
I125
tp713
sg510
I0
sg511
(I00
I126
tp714
sg513
I8
sg514
(I00
I126
tp715
sg516
g517
sa(dp716
g508
(I01
I127
tp717
sg510
I0
sg511
(I01
I127
tp718
sg513
I9
sg514
(I01
I127
tp719
sg516
g534
sa(dp720
g508
(I00
I128
tp721
sg510
I2
sg511
(I00
I127
tp722
sg513
I9
sg514
(I00
I127
tp723
sg516
g534
sa(dp724
g508
(I00
I128
tp725
sg510
I1
sg511
(I00
I128
tp726
sg513
I9
sg514
(I00
I127
tp727
sg516
g534
sa(dp728
g508
(I01
I57306
tp729
sg510
I0
sg511
(I01
I57306
tp730
sg513
I9
sg514
(I01
I57306
tp731
sg516
g547
sa(dp732
g508
(I00
I33152
tp733
sg510
I2
sg511
(I00
I57306
tp734
sg513
I9
sg514
(I00
I57306
tp735
sg516
g547
sa(dp736
g508
(I01
I65526
tp737
sg510
I2
sg511
(I01
I65526
tp738
sg513
I9
sg514
(I01
I65526
tp739
sg516
S'r1'
p740
sa(dp741
g508
(I00
I65526
tp742
sg510
I1
sg511
(I00
I0
tp743
sg513
I9
sg514
(I00
I65526
tp744
sg516
g740
sa(dp745
g508
(I00
I65526
tp746
sg510
I0
sg511
(I00
I0
tp747
sg513
I9
sg514
(I00
I0
tp748
sg516
g740
sa(dp749
g508
(I01
I0
tp750
sg510
I0
sg511
(I01
I0
tp751
sg513
I10
sg514
(I01
I0
tp752
sg516
g740
sa(dp753
g508
(I00
I0
tp754
sg510
I0
sg511
(I00
I0
tp755
sg513
I10
sg514
(I00
I0
tp756
sg516
g740
sa(dp757
g508
(I00
I0
tp758
sg510
I2
sg511
(I00
I0
tp759
sg513
I9
sg514
(I00
I0
tp760
sg516
g740
sa(lp761
(dp762
S'insert_mode'
p763
I01
sS'cur_field_name'
p764
g573
sS'cur_base'
p765
I1
sS'cur_step'
p766
I-1
st.